target datalayout = "e-m:e-p270:32:32-p271:32:32-p272:64:64-i64:64-i128:128-f80:128-n8:16:32:64-S128"
target triple = "x86_64-pc-linux-gnu"

%"class.std::__cxx11::basic_string" = type { %"struct.std::__cxx11::basic_string<char>::_Alloc_hider", i64, %union.anon }
%"struct.std::__cxx11::basic_string<char>::_Alloc_hider" = type { ptr }
%union.anon = type { i64, [8 x i8] }

; Function Attrs: noinline noreturn nounwind uwtable
define linkonce_odr hidden void @__clang_call_terminate(ptr noundef %0) #16 comdat {
  %2 = call ptr @__cxa_begin_catch(ptr %0) #11
  call void @_ZSt9terminatev() #21
  unreachable
}

; Function Attrs: mustprogress nounwind uwtable
define available_externally noundef ptr @_ZNKSt7__cxx1112basic_stringIcSt11char_traitsIcESaIcEE7_M_dataEv(ptr noundef nonnull align 8 dereferenceable(32) %0) #1 align 2 {
  %2 = alloca ptr, align 8
  store ptr %0, ptr %2, align 8, !tbaa !53
  %3 = load ptr, ptr %2, align 8
  %4 = getelementptr inbounds nuw %"class.std::__cxx11::basic_string", ptr %3, i32 0, i32 0
  %5 = getelementptr inbounds nuw %"struct.std::__cxx11::basic_string<char>::_Alloc_hider", ptr %4, i32 0, i32 0
  %6 = load ptr, ptr %5, align 8, !tbaa !127
  ret ptr %6
}

; Function Attrs: mustprogress uwtable
define linkonce_odr dso_local noundef ptr @_ZN8tinyxml27XMLNode17FirstChildElementEPKc(ptr noundef nonnull align 8 dereferenceable(88) %0, ptr noundef %1) #3 comdat align 2 {
  %3 = alloca ptr, align 8
  %4 = alloca ptr, align 8
  store ptr %0, ptr %3, align 8, !tbaa !65
  store ptr %1, ptr %4, align 8, !tbaa !57
  %5 = load ptr, ptr %3, align 8
  %6 = load ptr, ptr %4, align 8, !tbaa !57
  %7 = call noundef ptr @_ZNK8tinyxml27XMLNode17FirstChildElementEPKc(ptr noundef nonnull align 8 dereferenceable(88) %5, ptr noundef %6)
  ret ptr %7
}

; Function Attrs: mustprogress nounwind uwtable
define available_externally noundef ptr @_ZNKSt7__cxx1112basic_stringIcSt11char_traitsIcESaIcEE5c_strEv(ptr noundef nonnull align 8 dereferenceable(32) %0) #1 align 2 personality ptr @__gxx_personality_v0 {
  %2 = alloca ptr, align 8
  store ptr %0, ptr %2, align 8, !tbaa !53
  %3 = load ptr, ptr %2, align 8
  %4 = invoke noundef ptr @_ZNKSt7__cxx1112basic_stringIcSt11char_traitsIcESaIcEE7_M_dataEv(ptr noundef nonnull align 8 dereferenceable(32) %3)
          to label %5 unwind label %6

5:                                                ; preds = %1
  ret ptr %4

6:                                                ; preds = %1
  %7 = landingpad { ptr, i32 }
          catch ptr null
  %8 = extractvalue { ptr, i32 } %7, 0
  call void @__clang_call_terminate(ptr %8) #21
  unreachable
}

; Function Attrs: mustprogress uwtable
define dso_local noundef ptr @_ZN3igl3xml17serialization_xml10getElementEPN8tinyxml211XMLDocumentEPNS2_10XMLElementERKNSt7__cxx1112basic_stringIcSt11char_traitsIcESaIcEEE(ptr noundef %0, ptr noundef %1, ptr noundef nonnull align 8 dereferenceable(32) %2) #3 {
  %4 = alloca ptr, align 8
  %5 = alloca ptr, align 8
  %6 = alloca ptr, align 8
  %7 = alloca ptr, align 8
  store ptr %0, ptr %4, align 8, !tbaa !47
  store ptr %1, ptr %5, align 8, !tbaa !49
  store ptr %2, ptr %6, align 8, !tbaa !53
  call void @llvm.lifetime.start.p0(i64 8, ptr %7) #11
  %8 = load ptr, ptr %5, align 8, !tbaa !49
  %9 = load ptr, ptr %6, align 8, !tbaa !53
  %10 = call noundef ptr @_ZNKSt7__cxx1112basic_stringIcSt11char_traitsIcESaIcEE5c_strEv(ptr noundef nonnull align 8 dereferenceable(32) %9) #11
  %11 = call noundef ptr @_ZN8tinyxml27XMLNode17FirstChildElementEPKc(ptr noundef nonnull align 8 dereferenceable(88) %8, ptr noundef %10)
  store ptr %11, ptr %7, align 8, !tbaa !49
  %12 = load ptr, ptr %7, align 8, !tbaa !49
  %13 = icmp eq ptr %12, null
  br i1 %13, label %14, label %22

14:                                               ; preds = %3
  %15 = load ptr, ptr %4, align 8, !tbaa !47
  %16 = load ptr, ptr %6, align 8, !tbaa !53
  %17 = call noundef ptr @_ZNKSt7__cxx1112basic_stringIcSt11char_traitsIcESaIcEE5c_strEv(ptr noundef nonnull align 8 dereferenceable(32) %16) #11
  %18 = call noundef ptr @_ZN8tinyxml211XMLDocument10NewElementEPKc(ptr noundef nonnull align 8 dereferenceable(640) %15, ptr noundef %17)
  store ptr %18, ptr %7, align 8, !tbaa !49
  %19 = load ptr, ptr %5, align 8, !tbaa !49
  %20 = load ptr, ptr %7, align 8, !tbaa !49
  %21 = call noundef ptr @_ZN8tinyxml27XMLNode14InsertEndChildEPS0_(ptr noundef nonnull align 8 dereferenceable(88) %19, ptr noundef %20)
  br label %22

22:                                               ; preds = %14, %3
  %23 = load ptr, ptr %7, align 8, !tbaa !49
  call void @llvm.lifetime.end.p0(i64 8, ptr %7) #11
  ret ptr %23
}