; Function Attrs: mustprogress uwtable
define dso_local noundef ptr @_ZN3igl3xml17serialization_xml10getElementEPN8tinyxml211XMLDocumentEPNS2_10XMLElementERKNSt7__cxx1112basic_stringIcSt11char_traitsIcESaIcEEE(ptr noundef %0, ptr noundef nonnull %1, ptr noundef nonnull readonly align 8 captures(none) dereferenceable(32) %2) local_unnamed_addr #2 personality ptr @__gxx_personality_v0 {
  %4 = load ptr, ptr %2, align 8, !tbaa !32
  %5 = tail call noundef ptr @_ZNK8tinyxml27XMLNode17FirstChildElementEPKc(ptr noundef nonnull align 8 dereferenceable(88) %1, ptr noundef %4)
  %6 = icmp eq ptr %5, null
  br i1 %6, label %7, label %11

7:                                                ; preds = %3
  %8 = load ptr, ptr %2, align 8, !tbaa !32
  %9 = tail call noundef ptr @_ZN8tinyxml211XMLDocument10NewElementEPKc(ptr noundef nonnull align 8 dereferenceable(640) %0, ptr noundef %8)
  %10 = tail call noundef ptr @_ZN8tinyxml27XMLNode14InsertEndChildEPS0_(ptr noundef nonnull align 8 dereferenceable(88) %1, ptr noundef %9)
  br label %11

11:                                               ; preds = %7, %3
  %.0 = phi ptr [ %9, %7 ], [ %5, %3 ]
  ret ptr %.0
}